(dp1
S'output'
p2
S"<type 'exceptions.TypeError'> <pydal.helpers.classes.RecordUpdater object at 0x7fbd30177810> is not JSON serializable"
p3
sS'layer'
p4
S'/home/wellford/ComCooks/web2py/applications/ComCooks/controllers/api.py'
p5
sS'code'
p6
S'<code object <module> at 0x7fbd303e61b0, file "/home/wellford/ComCooks/web2py/applications/ComCooks/controllers/api.py", line 2>'
p7
sS'snapshot'
p8
(dp9
S'exception'
p10
(dp11
S'__getslice__'
p12
S"<method-wrapper '__getslice__' of exceptions.TypeError object>"
p13
sS'__str__'
p14
S"<method-wrapper '__str__' of exceptions.TypeError object>"
p15
sS'__reduce__'
p16
S'<built-in method __reduce__ of exceptions.TypeError object>'
p17
sS'__dict__'
p18
S'{}'
p19
sS'message'
p20
S"'<pydal.helpers.classes.RecordUpdater object at 0x7fbd30177810> is not JSON serializable'"
p21
sS'__sizeof__'
p22
S'<built-in method __sizeof__ of exceptions.TypeError object>'
p23
sS'__init__'
p24
S"<method-wrapper '__init__' of exceptions.TypeError object>"
p25
sS'__setattr__'
p26
S"<method-wrapper '__setattr__' of exceptions.TypeError object>"
p27
sS'__reduce_ex__'
p28
S'<built-in method __reduce_ex__ of exceptions.TypeError object>'
p29
sS'__new__'
p30
S'<built-in method __new__ of type object>'
p31
sS'__format__'
p32
S'<built-in method __format__ of exceptions.TypeError object>'
p33
sS'__class__'
p34
S"<type 'exceptions.TypeError'>"
p35
sS'__doc__'
p36
S"'Inappropriate argument type.'"
p37
sS'__getitem__'
p38
S"<method-wrapper '__getitem__' of exceptions.TypeError object>"
p39
sS'__setstate__'
p40
S'<built-in method __setstate__ of exceptions.TypeError object>'
p41
sS'__getattribute__'
p42
S"<method-wrapper '__getattribute__' of exceptions.TypeError object>"
p43
sS'args'
p44
S"('<pydal.helpers.classes.RecordUpdater object at 0x7fbd30177810> is not JSON serializable',)"
p45
sS'__subclasshook__'
p46
S'<built-in method __subclasshook__ of type object>'
p47
sS'__unicode__'
p48
S'<built-in method __unicode__ of exceptions.TypeError object>'
p49
sS'__delattr__'
p50
S"<method-wrapper '__delattr__' of exceptions.TypeError object>"
p51
sS'__repr__'
p52
S"<method-wrapper '__repr__' of exceptions.TypeError object>"
p53
sS'__hash__'
p54
S"<method-wrapper '__hash__' of exceptions.TypeError object>"
p55
ssS'evalue'
p56
S'<pydal.helpers.classes.RecordUpdater object at 0x7fbd30177810> is not JSON serializable'
p57
sS'request'
p58
cgluon.html
XML_unpickle
p59
(S's\x89f\x00\x00<div><table><tr><td style="font-weight:bold;vertical-align:top;">ajax</td><td style="vertical-align:top;">:</td><td><div>True</div></td></tr><tr><td style="font-weight:bold;vertical-align:top;">application</td><td style="vertical-align:top;">:</td><td><div>ComCooks</div></td></tr><tr><td style="font-weight:bold;vertical-align:top;">args</td><td style="vertical-align:top;">:</td><td><div><table></table></div></td></tr><tr><td style="font-weight:bold;vertical-align:top;">cid</td><td style="vertical-align:top;">:</td><td><div>None</div></td></tr><tr><td style="font-weight:bold;vertical-align:top;">client</td><td style="vertical-align:top;">:</td><td><div>127.0.0.1</div></td></tr><tr><td style="font-weight:bold;vertical-align:top;">controller</td><td style="vertical-align:top;">:</td><td><div>api</div></td></tr><tr><td style="font-weight:bold;vertical-align:top;">cookies</td><td style="vertical-align:top;">:</td><td><div><table><tr><td style="font-weight:bold;vertical-align:top;">session_id_admin</td><td style="vertical-align:top;">:</td><td><div>127.0.0.1-91bad7dd-17c0-40ba-b753-268bf295bfe4<table><tr><td style="font-weight:bold;vertical-align:top;">comment</td><td style="vertical-align:top;">:</td><td><div></div></td></tr><tr><td style="font-weight:bold;vertical-align:top;">domain</td><td style="vertical-align:top;">:</td><td><div></div></td></tr><tr><td style="font-weight:bold;vertical-align:top;">expires</td><td style="vertical-align:top;">:</td><td><div></div></td></tr><tr><td style="font-weight:bold;vertical-align:top;">httponly</td><td style="vertical-align:top;">:</td><td><div></div></td></tr><tr><td style="font-weight:bold;vertical-align:top;">max-age</td><td style="vertical-align:top;">:</td><td><div></div></td></tr><tr><td style="font-weight:bold;vertical-align:top;">path</td><td style="vertical-align:top;">:</td><td><div></div></td></tr><tr><td style="font-weight:bold;vertical-align:top;">samesite</td><td style="vertical-align:top;">:</td><td><div></div></td></tr><tr><td style="font-weight:bold;vertical-align:top;">secure</td><td style="vertical-align:top;">:</td><td><div></div></td></tr><tr><td style="font-weight:bold;vertical-align:top;">version</td><td style="vertical-align:top;">:</td><td><div></div></td></tr></table></div></td></tr><tr><td style="font-weight:bold;vertical-align:top;">session_id_comcooks</td><td style="vertical-align:top;">:</td><td><div>27:ee85a68c-d897-4c5a-a625-321746956222<table><tr><td style="font-weight:bold;vertical-align:top;">comment</td><td style="vertical-align:top;">:</td><td><div></div></td></tr><tr><td style="font-weight:bold;vertical-align:top;">domain</td><td style="vertical-align:top;">:</td><td><div></div></td></tr><tr><td style="font-weight:bold;vertical-align:top;">expires</td><td style="vertical-align:top;">:</td><td><div></div></td></tr><tr><td style="font-weight:bold;vertical-align:top;">httponly</td><td style="vertical-align:top;">:</td><td><div></div></td></tr><tr><td style="font-weight:bold;vertical-align:top;">max-age</td><td style="vertical-align:top;">:</td><td><div></div></td></tr><tr><td style="font-weight:bold;vertical-align:top;">path</td><td style="vertical-align:top;">:</td><td><div></div></td></tr><tr><td style="font-weight:bold;vertical-align:top;">samesite</td><td style="vertical-align:top;">:</td><td><div></div></td></tr><tr><td style="font-weight:bold;vertical-align:top;">secure</td><td style="vertical-align:top;">:</td><td><div></div></td></tr><tr><td style="font-weight:bold;vertical-align:top;">version</td><td style="vertical-align:top;">:</td><td><div></div></td></tr></table></div></td></tr><tr><td style="font-weight:bold;vertical-align:top;">session_id_hw4</td><td style="vertical-align:top;">:</td><td><div>127.0.0.1-28c6e658-d9e0-4d7b-9819-f2c917d06ef9<table><tr><td style="font-weight:bold;vertical-align:top;">comment</td><td style="vertical-align:top;">:</td><td><div></div></td></tr><tr><td style="font-weight:bold;vertical-align:top;">domain</td><td style="vertical-align:top;">:</td><td><div></div></td></tr><tr><td style="font-weight:bold;vertical-align:top;">expires</td><td style="vertical-align:top;">:</td><td><div></div></td></tr><tr><td style="font-weight:bold;vertical-align:top;">httponly</td><td style="vertical-align:top;">:</td><td><div></div></td></tr><tr><td style="font-weight:bold;vertical-align:top;">max-age</td><td style="vertical-align:top;">:</td><td><div></div></td></tr><tr><td style="font-weight:bold;vertical-align:top;">path</td><td style="vertical-align:top;">:</td><td><div></div></td></tr><tr><td style="font-weight:bold;vertical-align:top;">samesite</td><td style="vertical-align:top;">:</td><td><div></div></td></tr><tr><td style="font-weight:bold;vertical-align:top;">secure</td><td style="vertical-align:top;">:</td><td><div></div></td></tr><tr><td style="font-weight:bold;vertical-align:top;">version</td><td style="vertical-align:top;">:</td><td><div></div></td></tr></table></div></td></tr><tr><td style="font-weight:bold;vertical-align:top;">session_id_welcome</td><td style="vertical-align:top;">:</td><td><div>127.0.0.1-1990caba-af76-47fa-91ae-4f22b9a66869<table><tr><td style="font-weight:bold;vertical-align:top;">comment</td><td style="vertical-align:top;">:</td><td><div></div></td></tr><tr><td style="font-weight:bold;vertical-align:top;">domain</td><td style="vertical-align:top;">:</td><td><div></div></td></tr><tr><td style="font-weight:bold;vertical-align:top;">expires</td><td style="vertical-align:top;">:</td><td><div></div></td></tr><tr><td style="font-weight:bold;vertical-align:top;">httponly</td><td style="vertical-align:top;">:</td><td><div></div></td></tr><tr><td style="font-weight:bold;vertical-align:top;">max-age</td><td style="vertical-align:top;">:</td><td><div></div></td></tr><tr><td style="font-weight:bold;vertical-align:top;">path</td><td style="vertical-align:top;">:</td><td><div></div></td></tr><tr><td style="font-weight:bold;vertical-align:top;">samesite</td><td style="vertical-align:top;">:</td><td><div></div></td></tr><tr><td style="font-weight:bold;vertical-align:top;">secure</td><td style="vertical-align:top;">:</td><td><div></div></td></tr><tr><td style="font-weight:bold;vertical-align:top;">version</td><td style="vertical-align:top;">:</td><td><div></div></td></tr></table></div></td></tr></table></div></td></tr><tr><td style="font-weight:bold;vertical-align:top;">env</td><td style="vertical-align:top;">:</td><td><div><table><tr><td style="font-weight:bold;vertical-align:top;">HTTP_ACCEPT</td><td style="vertical-align:top;">:</td><td><div>application/json, text/javascript, */*; q=0.01</div></td></tr><tr><td style="font-weight:bold;vertical-align:top;">HTTP_ACCEPT_ENCODING</td><td style="vertical-align:top;">:</td><td><div>gzip, deflate, br</div></td></tr><tr><td style="font-weight:bold;vertical-align:top;">HTTP_ACCEPT_LANGUAGE</td><td style="vertical-align:top;">:</td><td><div>en-US,en;q=0.9</div></td></tr><tr><td style="font-weight:bold;vertical-align:top;">HTTP_CONNECTION</td><td style="vertical-align:top;">:</td><td><div>keep-alive</div></td></tr><tr><td style="font-weight:bold;vertical-align:top;">HTTP_COOKIE</td><td style="vertical-align:top;">:</td><td><div>session_id_welcome=127.0.0.1-1990caba-af76-47fa-91ae-4f22b9a66869; session_id_admin=127.0.0.1-91bad7dd-17c0-40ba-b753-268bf295bfe4; session_id_hw4=127.0.0.1-28c6e658-d9e0-4d7b-9819-f2c917d06ef9; session_id_comcooks=&quot;27:ee85a68c-d897-4c5a-a625-321746956222&quot;</div></td></tr><tr><td style="font-weight:bold;vertical-align:top;">HTTP_HOST</td><td style="vertical-align:top;">:</td><td><div>127.0.0.1:8000</div></td></tr><tr><td style="font-weight:bold;vertical-align:top;">HTTP_ORIGIN</td><td style="vertical-align:top;">:</td><td><div>http://evil.com/</div></td></tr><tr><td style="font-weight:bold;vertical-align:top;">HTTP_REFERER</td><td style="vertical-align:top;">:</td><td><div>http://127.0.0.1:8000/ComCooks/default/index/42</div></td></tr><tr><td style="font-weight:bold;vertical-align:top;">HTTP_USER_AGENT</td><td style="vertical-align:top;">:</td><td><div>Mozilla/5.0 (X11; Linux x86_64) AppleWebKit/537.36 (KHTML, like Gecko) Chrome/70.0.3538.110 Safari/537.36</div></td></tr><tr><td style="font-weight:bold;vertical-align:top;">HTTP_X_REQUESTED_WITH</td><td style="vertical-align:top;">:</td><td><div>XMLHttpRequest</div></td></tr><tr><td style="font-weight:bold;vertical-align:top;">PATH_INFO</td><td style="vertical-align:top;">:</td><td><div>/ComCooks/api/get_image</div></td></tr><tr><td style="font-weight:bold;vertical-align:top;">QUERY_STRING</td><td style="vertical-align:top;">:</td><td><div>post_id=42</div></td></tr><tr><td style="font-weight:bold;vertical-align:top;">REMOTE_ADDR</td><td style="vertical-align:top;">:</td><td><div>127.0.0.1</div></td></tr><tr><td style="font-weight:bold;vertical-align:top;">REMOTE_PORT</td><td style="vertical-align:top;">:</td><td><div>60582</div></td></tr><tr><td style="font-weight:bold;vertical-align:top;">REQUEST_METHOD</td><td style="vertical-align:top;">:</td><td><div>GET</div></td></tr><tr><td style="font-weight:bold;vertical-align:top;">SCRIPT_NAME</td><td style="vertical-align:top;">:</td><td><div></div></td></tr><tr><td style="font-weight:bold;vertical-align:top;">SERVER_NAME</td><td style="vertical-align:top;">:</td><td><div>wellford-HP-ENVY-Notebook</div></td></tr><tr><td style="font-weight:bold;vertical-align:top;">SERVER_PORT</td><td style="vertical-align:top;">:</td><td><div>8000</div></td></tr><tr><td style="font-weight:bold;vertical-align:top;">SERVER_PROTOCOL</td><td style="vertical-align:top;">:</td><td><div>HTTP/1.1</div></td></tr><tr><td style="font-weight:bold;vertical-align:top;">SERVER_SOFTWARE</td><td style="vertical-align:top;">:</td><td><div>Rocket 1.2.6</div></td></tr><tr><td style="font-weight:bold;vertical-align:top;">app_folders</td><td style="vertical-align:top;">:</td><td><div>set([&#x27;/home/wellford/ComCooks/web2py/applications/hw4/&#x27;, &#x27;/home/wellford/ComCooks/web2py/applications/admin/&#x27;, &#x27;/home/wellford/ComCooks/web2py/applications/welcome/&#x27;, &#x27;/home/wellford/ComCooks/web2py/applications/ComCooks/&#x27;])</div></td></tr><tr><td style="font-weight:bold;vertical-align:top;">applications_parent</td><td style="vertical-align:top;">:</td><td><div>/home/wellford/ComCooks/web2py</div></td></tr><tr><td style="font-weight:bold;vertical-align:top;">cmd_args</td><td style="vertical-align:top;">:</td><td><div><table></table></div></td></tr><tr><td style="font-weight:bold;vertical-align:top;">cmd_options</td><td style="vertical-align:top;">:</td><td><div>&lt;Values at 0x7fbd5a032fc8: {&#x27;verbose&#x27;: False, &#x27;ip&#x27;: &#x27;127.0.0.1&#x27;, &#x27;debuglevel&#x27;: 30, &#x27;with_scheduler&#x27;: False, &#x27;shutdown_timeout&#x27;: 5, &#x27;taskbar&#x27;: False, &#x27;with_coverage&#x27;: False, &#x27;pid_filename&#x27;: &#x27;httpserver.pid&#x27;, &#x27;maxthreads&#x27;: None, &#x27;softcron&#x27;: False, &#x27;server_name&#x27;: &#x27;wellford-HP-ENVY-Notebook&#x27;, &#x27;bpython&#x27;: False, &#x27;nogui&#x27;: False, &#x27;port&#x27;: 8000, &#x27;print_errors&#x27;: True, &#x27;extcron&#x27;: False, &#x27;runcron&#x27;: False, &#x27;run_system_tests&#x27;: False, &#x27;test&#x27;: None, &#x27;folder&#x27;: &#x27;/home/wellford/ComCooks/web2py&#x27;, &#x27;config&#x27;: &#x27;&#x27;, &#x27;minthreads&#x27;: None, &#x27;shell&#x27;: None, &#x27;run&#x27;: &#x27;&#x27;, &#x27;log_filename&#x27;: &#x27;httpserver.log&#x27;, &#x27;profiler_dir&#x27;: None, &#x27;args&#x27;: [&#x27;&#x27;], &#x27;socket_timeout&#x27;: 5, &#x27;ssl_ca_certificate&#x27;: None, &#x27;scheduler&#x27;: None, &#x27;interfaces&#x27;: None, &#x27;ssl_private_key&#x27;: &#x27;&#x27;, &#x27;gae&#x27;: None, &#x27;password&#x27;: &#x27;******&#x27;, &#x27;request_queue_size&#x27;: 5, &#x27;ssl_certificate&#x27;: &#x27;&#x27;, &#x27;cronjob&#x27;: False, &#x27;numthreads&#x27;: None, &#x27;quiet&#x27;: False, &#x27;import_models&#x27;: False, &#x27;timeout&#x27;: 10, &#x27;plain&#x27;: False, &#x27;nobanner&#x27;: False}&gt;</div></td></tr><tr><td style="font-weight:bold;vertical-align:top;">db_sessions</td><td style="vertical-align:top;">:</td><td><div>set([&#x27;ComCooks&#x27;])</div></td></tr><tr><td style="font-weight:bold;vertical-align:top;">debugging</td><td style="vertical-align:top;">:</td><td><div>False</div></td></tr><tr><td style="font-weight:bold;vertical-align:top;">gluon_parent</td><td style="vertical-align:top;">:</td><td><div>/home/wellford/ComCooks/web2py</div></td></tr><tr><td style="font-weight:bold;vertical-align:top;">http_accept</td><td style="vertical-align:top;">:</td><td><div>application/json, text/javascript, */*; q=0.01</div></td></tr><tr><td style="font-weight:bold;vertical-align:top;">http_accept_encoding</td><td style="vertical-align:top;">:</td><td><div>gzip, deflate, br</div></td></tr><tr><td style="font-weight:bold;vertical-align:top;">http_accept_language</td><td style="vertical-align:top;">:</td><td><div>en-US,en;q=0.9</div></td></tr><tr><td style="font-weight:bold;vertical-align:top;">http_connection</td><td style="vertical-align:top;">:</td><td><div>keep-alive</div></td></tr><tr><td style="font-weight:bold;vertical-align:top;">http_cookie</td><td style="vertical-align:top;">:</td><td><div>session_id_welcome=127.0.0.1-1990caba-af76-47fa-91ae-4f22b9a66869; session_id_admin=127.0.0.1-91bad7dd-17c0-40ba-b753-268bf295bfe4; session_id_hw4=127.0.0.1-28c6e658-d9e0-4d7b-9819-f2c917d06ef9; session_id_comcooks=&quot;27:ee85a68c-d897-4c5a-a625-321746956222&quot;</div></td></tr><tr><td style="font-weight:bold;vertical-align:top;">http_host</td><td style="vertical-align:top;">:</td><td><div>127.0.0.1:8000</div></td></tr><tr><td style="font-weight:bold;vertical-align:top;">http_origin</td><td style="vertical-align:top;">:</td><td><div>http://evil.com/</div></td></tr><tr><td style="font-weight:bold;vertical-align:top;">http_referer</td><td style="vertical-align:top;">:</td><td><div>http://127.0.0.1:8000/ComCooks/default/index/42</div></td></tr><tr><td style="font-weight:bold;vertical-align:top;">http_user_agent</td><td style="vertical-align:top;">:</td><td><div>Mozilla/5.0 (X11; Linux x86_64) AppleWebKit/537.36 (KHTML, like Gecko) Chrome/70.0.3538.110 Safari/537.36</div></td></tr><tr><td style="font-weight:bold;vertical-align:top;">http_x_requested_with</td><td style="vertical-align:top;">:</td><td><div>XMLHttpRequest</div></td></tr><tr><td style="font-weight:bold;vertical-align:top;">is_jython</td><td style="vertical-align:top;">:</td><td><div>False</div></td></tr><tr><td style="font-weight:bold;vertical-align:top;">is_py2</td><td style="vertical-align:top;">:</td><td><div>True</div></td></tr><tr><td style="font-weight:bold;vertical-align:top;">is_pypy</td><td style="vertical-align:top;">:</td><td><div>False</div></td></tr><tr><td style="font-weight:bold;vertical-align:top;">is_source</td><td style="vertical-align:top;">:</td><td><div>True</div></td></tr><tr><td style="font-weight:bold;vertical-align:top;">local_hosts</td><td style="vertical-align:top;">:</td><td><div><table><tr><td><div>wellford-HP-ENVY-Notebook</div></td></tr><tr><td><div>::1</div></td></tr><tr><td><div>127.0.1.1</div></td></tr><tr><td><div>::ffff:127.0.0.1</div></td></tr><tr><td><div>127.0.0.1</div></td></tr></table></div></td></tr><tr><td style="font-weight:bold;vertical-align:top;">path_info</td><td style="vertical-align:top;">:</td><td><div>/ComCooks/api/get_image</div></td></tr><tr><td style="font-weight:bold;vertical-align:top;">query_string</td><td style="vertical-align:top;">:</td><td><div>post_id=42</div></td></tr><tr><td style="font-weight:bold;vertical-align:top;">remote_addr</td><td style="vertical-align:top;">:</td><td><div>127.0.0.1</div></td></tr><tr><td style="font-weight:bold;vertical-align:top;">remote_port</td><td style="vertical-align:top;">:</td><td><div>60582</div></td></tr><tr><td style="font-weight:bold;vertical-align:top;">request_method</td><td style="vertical-align:top;">:</td><td><div>GET</div></td></tr><tr><td style="font-weight:bold;vertical-align:top;">request_uri</td><td style="vertical-align:top;">:</td><td><div>/ComCooks/api/get_image?post_id=42</div></td></tr><tr><td style="font-weight:bold;vertical-align:top;">script_name</td><td style="vertical-align:top;">:</td><td><div></div></td></tr><tr><td style="font-weight:bold;vertical-align:top;">server_name</td><td style="vertical-align:top;">:</td><td><div>wellford-HP-ENVY-Notebook</div></td></tr><tr><td style="font-weight:bold;vertical-align:top;">server_port</td><td style="vertical-align:top;">:</td><td><div>8000</div></td></tr><tr><td style="font-weight:bold;vertical-align:top;">server_protocol</td><td style="vertical-align:top;">:</td><td><div>HTTP/1.1</div></td></tr><tr><td style="font-weight:bold;vertical-align:top;">server_software</td><td style="vertical-align:top;">:</td><td><div>Rocket 1.2.6</div></td></tr><tr><td style="font-weight:bold;vertical-align:top;">web2py_path</td><td style="vertical-align:top;">:</td><td><div>/home/wellford/ComCooks/web2py</div></td></tr><tr><td style="font-weight:bold;vertical-align:top;">web2py_version</td><td style="vertical-align:top;">:</td><td><div>2.17.2-stable+timestamp.2018.10.06.18.54.02</div></td></tr><tr><td style="font-weight:bold;vertical-align:top;">wsgi.errors</td><td style="vertical-align:top;">:</td><td><div>&lt;open file &#x27;&lt;stderr&gt;&#x27;, mode &#x27;w&#x27; at 0x7fbd62a651e0&gt;</div></td></tr><tr><td style="font-weight:bold;vertical-align:top;">wsgi.file_wrapper</td><td style="vertical-align:top;">:</td><td><div>&lt;class wsgiref.util.FileWrapper at 0x7fbd5a0dd600&gt;</div></td></tr><tr><td style="font-weight:bold;vertical-align:top;">wsgi.input</td><td style="vertical-align:top;">:</td><td><div>&lt;socket._fileobject object at 0x7fbd308a8bd0&gt;</div></td></tr><tr><td style="font-weight:bold;vertical-align:top;">wsgi.multiprocess</td><td style="vertical-align:top;">:</td><td><div>False</div></td></tr><tr><td style="font-weight:bold;vertical-align:top;">wsgi.multithread</td><td style="vertical-align:top;">:</td><td><div>True</div></td></tr><tr><td style="font-weight:bold;vertical-align:top;">wsgi.run_once</td><td style="vertical-align:top;">:</td><td><div>False</div></td></tr><tr><td style="font-weight:bold;vertical-align:top;">wsgi.url_scheme</td><td style="vertical-align:top;">:</td><td><div>http</div></td></tr><tr><td style="font-weight:bold;vertical-align:top;">wsgi.version</td><td style="vertical-align:top;">:</td><td><div><table><tr><td><div>1</div></td></tr><tr><td><div>0</div></td></tr></table></div></td></tr><tr><td style="font-weight:bold;vertical-align:top;">wsgi_errors</td><td style="vertical-align:top;">:</td><td><div>&lt;open file &#x27;&lt;stderr&gt;&#x27;, mode &#x27;w&#x27; at 0x7fbd62a651e0&gt;</div></td></tr><tr><td style="font-weight:bold;vertical-align:top;">wsgi_file_wrapper</td><td style="vertical-align:top;">:</td><td><div>&lt;class wsgiref.util.FileWrapper at 0x7fbd5a0dd600&gt;</div></td></tr><tr><td style="font-weight:bold;vertical-align:top;">wsgi_input</td><td style="vertical-align:top;">:</td><td><div>&lt;socket._fileobject object at 0x7fbd308a8bd0&gt;</div></td></tr><tr><td style="font-weight:bold;vertical-align:top;">wsgi_multiprocess</td><td style="vertical-align:top;">:</td><td><div>False</div></td></tr><tr><td style="font-weight:bold;vertical-align:top;">wsgi_multithread</td><td style="vertical-align:top;">:</td><td><div>True</div></td></tr><tr><td style="font-weight:bold;vertical-align:top;">wsgi_run_once</td><td style="vertical-align:top;">:</td><td><div>False</div></td></tr><tr><td style="font-weight:bold;vertical-align:top;">wsgi_url_scheme</td><td style="vertical-align:top;">:</td><td><div>http</div></td></tr><tr><td style="font-weight:bold;vertical-align:top;">wsgi_version</td><td style="vertical-align:top;">:</td><td><div><table><tr><td><div>1</div></td></tr><tr><td><div>0</div></td></tr></table></div></td></tr></table></div></td></tr><tr><td style="font-weight:bold;vertical-align:top;">extension</td><td style="vertical-align:top;">:</td><td><div>html</div></td></tr><tr><td style="font-weight:bold;vertical-align:top;">folder</td><td style="vertical-align:top;">:</td><td><div>/home/wellford/ComCooks/web2py/applications/ComCooks/</div></td></tr><tr><td style="font-weight:bold;vertical-align:top;">function</td><td style="vertical-align:top;">:</td><td><div>get_image</div></td></tr><tr><td style="font-weight:bold;vertical-align:top;">global_settings</td><td style="vertical-align:top;">:</td><td><div><table><tr><td style="font-weight:bold;vertical-align:top;">app_folders</td><td style="vertical-align:top;">:</td><td><div>set([&#x27;/home/wellford/ComCooks/web2py/applications/hw4/&#x27;, &#x27;/home/wellford/ComCooks/web2py/applications/admin/&#x27;, &#x27;/home/wellford/ComCooks/web2py/applications/welcome/&#x27;, &#x27;/home/wellford/ComCooks/web2py/applications/ComCooks/&#x27;])</div></td></tr><tr><td style="font-weight:bold;vertical-align:top;">applications_parent</td><td style="vertical-align:top;">:</td><td><div>/home/wellford/ComCooks/web2py</div></td></tr><tr><td style="font-weight:bold;vertical-align:top;">cmd_args</td><td style="vertical-align:top;">:</td><td><div><table></table></div></td></tr><tr><td style="font-weight:bold;vertical-align:top;">cmd_options</td><td style="vertical-align:top;">:</td><td><div>&lt;Values at 0x7fbd5a032fc8: {&#x27;verbose&#x27;: False, &#x27;ip&#x27;: &#x27;127.0.0.1&#x27;, &#x27;debuglevel&#x27;: 30, &#x27;with_scheduler&#x27;: False, &#x27;shutdown_timeout&#x27;: 5, &#x27;taskbar&#x27;: False, &#x27;with_coverage&#x27;: False, &#x27;pid_filename&#x27;: &#x27;httpserver.pid&#x27;, &#x27;maxthreads&#x27;: None, &#x27;softcron&#x27;: False, &#x27;server_name&#x27;: &#x27;wellford-HP-ENVY-Notebook&#x27;, &#x27;bpython&#x27;: False, &#x27;nogui&#x27;: False, &#x27;port&#x27;: 8000, &#x27;print_errors&#x27;: True, &#x27;extcron&#x27;: False, &#x27;runcron&#x27;: False, &#x27;run_system_tests&#x27;: False, &#x27;test&#x27;: None, &#x27;folder&#x27;: &#x27;/home/wellford/ComCooks/web2py&#x27;, &#x27;config&#x27;: &#x27;&#x27;, &#x27;minthreads&#x27;: None, &#x27;shell&#x27;: None, &#x27;run&#x27;: &#x27;&#x27;, &#x27;log_filename&#x27;: &#x27;httpserver.log&#x27;, &#x27;profiler_dir&#x27;: None, &#x27;args&#x27;: [&#x27;&#x27;], &#x27;socket_timeout&#x27;: 5, &#x27;ssl_ca_certificate&#x27;: None, &#x27;scheduler&#x27;: None, &#x27;interfaces&#x27;: None, &#x27;ssl_private_key&#x27;: &#x27;&#x27;, &#x27;gae&#x27;: None, &#x27;password&#x27;: &#x27;******&#x27;, &#x27;request_queue_size&#x27;: 5, &#x27;ssl_certificate&#x27;: &#x27;&#x27;, &#x27;cronjob&#x27;: False, &#x27;numthreads&#x27;: None, &#x27;quiet&#x27;: False, &#x27;import_models&#x27;: False, &#x27;timeout&#x27;: 10, &#x27;plain&#x27;: False, &#x27;nobanner&#x27;: False}&gt;</div></td></tr><tr><td style="font-weight:bold;vertical-align:top;">db_sessions</td><td style="vertical-align:top;">:</td><td><div>set([&#x27;ComCooks&#x27;])</div></td></tr><tr><td style="font-weight:bold;vertical-align:top;">debugging</td><td style="vertical-align:top;">:</td><td><div>False</div></td></tr><tr><td style="font-weight:bold;vertical-align:top;">gluon_parent</td><td style="vertical-align:top;">:</td><td><div>/home/wellford/ComCooks/web2py</div></td></tr><tr><td style="font-weight:bold;vertical-align:top;">is_jython</td><td style="vertical-align:top;">:</td><td><div>False</div></td></tr><tr><td style="font-weight:bold;vertical-align:top;">is_py2</td><td style="vertical-align:top;">:</td><td><div>True</div></td></tr><tr><td style="font-weight:bold;vertical-align:top;">is_pypy</td><td style="vertical-align:top;">:</td><td><div>False</div></td></tr><tr><td style="font-weight:bold;vertical-align:top;">is_source</td><td style="vertical-align:top;">:</td><td><div>True</div></td></tr><tr><td style="font-weight:bold;vertical-align:top;">local_hosts</td><td style="vertical-align:top;">:</td><td><div><table><tr><td><div>wellford-HP-ENVY-Notebook</div></td></tr><tr><td><div>::1</div></td></tr><tr><td><div>127.0.1.1</div></td></tr><tr><td><div>::ffff:127.0.0.1</div></td></tr><tr><td><div>127.0.0.1</div></td></tr></table></div></td></tr><tr><td style="font-weight:bold;vertical-align:top;">web2py_version</td><td style="vertical-align:top;">:</td><td><div>2.17.2-stable+timestamp.2018.10.06.18.54.02</div></td></tr></table></div></td></tr><tr><td style="font-weight:bold;vertical-align:top;">is_https</td><td style="vertical-align:top;">:</td><td><div>False</div></td></tr><tr><td style="font-weight:bold;vertical-align:top;">is_local</td><td style="vertical-align:top;">:</td><td><div>True</div></td></tr><tr><td style="font-weight:bold;vertical-align:top;">is_restful</td><td style="vertical-align:top;">:</td><td><div>False</div></td></tr><tr><td style="font-weight:bold;vertical-align:top;">is_scheduler</td><td style="vertical-align:top;">:</td><td><div>False</div></td></tr><tr><td style="font-weight:bold;vertical-align:top;">is_shell</td><td style="vertical-align:top;">:</td><td><div>False</div></td></tr><tr><td style="font-weight:bold;vertical-align:top;">method</td><td style="vertical-align:top;">:</td><td><div>GET</div></td></tr><tr><td style="font-weight:bold;vertical-align:top;">now</td><td style="vertical-align:top;">:</td><td><div>datetime.datetime(2018, 12, 9, 17, 47, 1, 852332)</div></td></tr><tr><td style="font-weight:bold;vertical-align:top;">raw_args</td><td style="vertical-align:top;">:</td><td><div></div></td></tr><tr><td style="font-weight:bold;vertical-align:top;">raw_extension</td><td style="vertical-align:top;">:</td><td><div>None</div></td></tr><tr><td style="font-weight:bold;vertical-align:top;">url</td><td style="vertical-align:top;">:</td><td><div>/ComCooks/api/get_image</div></td></tr><tr><td style="font-weight:bold;vertical-align:top;">utcnow</td><td style="vertical-align:top;">:</td><td><div>datetime.datetime(2018, 12, 10, 1, 47, 1, 852350)</div></td></tr><tr><td style="font-weight:bold;vertical-align:top;">wsgi</td><td style="vertical-align:top;">:</td><td><div>&lt;gluon.main.LazyWSGI object at 0x7fbd500f9850&gt;</div></td></tr></table></div>'
tRp60
sS'frames'
p61
(lp62
(dp63
S'file'
p64
S'/home/wellford/ComCooks/web2py/gluon/restricted.py'
p65
sS'dump'
p66
(dp67
S'environment'
p68
S"{'A': <class 'gluon.html.A'>, 'ANY_OF': <class 'gluon.validators.ANY_OF'>, 'ASSIGNJS': <function ASSIGNJS>, 'AppConfig': <function AppConfig>, 'Auth': <class 'gluon.tools.Auth'>, 'B': <class 'gluon.html.B'>, 'BEAUTIFY': <class 'gluon.html.BEAUTIFY'>, 'BODY': <class 'gluon.html.BODY'>, 'BR': <class 'gluon.html.BR'>, 'BUTTON': <class 'gluon.html.BUTTON'>, ...}"
p69
sS'ccode'
p70
S'<code object <module> at 0x7fbd303e61b0, file "/...pplications/ComCooks/controllers/api.py", line 2>'
p71
ssS'lnum'
p72
I219
sS'lines'
p73
(dp74
I214
S'    if environment is None:'
p75
sI215
S'        environment = {}'
p76
sI216
S"    environment['__file__'] = layer"
p77
sI217
S"    environment['__name__'] = '__restricted__'"
p78
sI218
S'    try:'
p79
sI219
S'        exec(ccode, environment)'
p80
sI220
S'    except HTTP:'
p81
sI221
S'        raise'
p82
sI222
S'    except RestrictedError:'
p83
sI223
S'        # do not encapsulate (obfuscate) the original RestrictedError'
p84
ssS'call'
p85
S'(ccode=<code object <module> at 0x7fbd303e61b0, file "/...pplications/ComCooks/controllers/api.py", line 2>, environment={\'A\': <class \'gluon.html.A\'>, \'ANY_OF\': <class \'gluon.validators.ANY_OF\'>, \'ASSIGNJS\': <function ASSIGNJS>, \'AppConfig\': <function AppConfig>, \'Auth\': <class \'gluon.tools.Auth\'>, \'B\': <class \'gluon.html.B\'>, \'BEAUTIFY\': <class \'gluon.html.BEAUTIFY\'>, \'BODY\': <class \'gluon.html.BODY\'>, \'BR\': <class \'gluon.html.BR\'>, \'BUTTON\': <class \'gluon.html.BUTTON\'>, ...}, layer=\'/home/wellford/ComCooks/web2py/applications/ComCooks/controllers/api.py\', scode=<code object <module> at 0x7fbd303e61b0, file "/...pplications/ComCooks/controllers/api.py", line 2>)'
p86
sS'func'
p87
S'restricted'
p88
sa(dp89
g64
S'/home/wellford/ComCooks/web2py/applications/ComCooks/controllers/api.py'
p90
sg66
(dp91
sg72
I194
sg73
(dp92
I192
S''
sI183
S'def get_post():'
p93
sI184
S'    # print "Printed if got to API"'
p94
sI185
S'    post_id = int(request.vars.post_id)'
p95
sI186
S'    post = db(post_id == db.post.id).select().first()'
p96
sI187
S''
sI188
S'    # print "This is the post_id: ", post_id'
p97
sI189
S'    # print "This is the post: ", post'
p98
sI190
S'    # print "The get_post api got to the end right before the return"'
p99
sI191
S'    return response.json(dict(post = post))'
p100
ssg85
S'()'
p101
sg87
S'<module>'
p102
sa(dp103
g64
S'/home/wellford/ComCooks/web2py/gluon/globals.py'
p104
sg66
(dp105
S'self'
p106
S'undefined'
p107
sS'f'
S'<function get_image>'
p108
ssg72
I421
sg73
(dp109
I416
S"        self.flash = ''            # used by the default view layout"
p110
sI417
S'        self.meta = Storage()      # used by web2py_ajax.html'
p111
sI418
S'        self.menu = []             # used by the default view layout'
p112
sI419
S'        self.files = []            # used by web2py_ajax.html'
p113
sI420
S'        self._vars = None'
p114
sI421
S'        self._caller = lambda f: f()'
p115
sI422
S'        self._view_environment = None'
p116
sI423
S'        self._custom_commit = None'
p117
sI424
S'        self._custom_rollback = None'
p118
sI425
S"        self.generic_patterns = ['*']"
p119
ssg85
S'(f=<function get_image>)'
p120
sg87
S'<lambda>'
p121
sa(dp122
g64
S'/home/wellford/ComCooks/web2py/applications/ComCooks/controllers/api.py'
p123
sg66
(dp124
S'r'
S'<Row {\'picture\': \'my_images.picture.a7de9eb74ecd...e2"\\x86\\x86\\xbee\\x16\\x8b_\\x91\\xbf\\xfaK\\xff\\xd9\'}>'
p125
sS'builtindict'
p126
S"<type 'dict'>"
p127
sS'global response'
p128
S"<Storage {'body': <cStringIO.StringO object at 0...y, session_data)>, 'view': 'api/get_image.html'}>"
p129
sS'response.json'
p130
S"<bound method Response.json of <Storage {'body':..., session_data)>, 'view': 'api/get_image.html'}>>"
p131
ssg72
I179
sg73
(dp132
I174
S'    post_id = int(request.vars.post_id)'
p133
sI175
S'    r = db(db.my_images.post_id == post_id).select().first()'
p134
sI176
S'    image_str = None'
p135
sI177
S'    if r is not None:'
p136
sI178
S'        image_str = r.image_str'
p137
sI179
S'    return response.json(dict(r))'
p138
sI180
S''
sI181
S''
sI182
S'# Gets the info of the respective post based on post id'
p139
sI183
S'def get_post():'
p140
ssg85
S'()'
p141
sg87
S'get_image'
p142
sa(dp143
g64
S'/home/wellford/ComCooks/web2py/gluon/globals.py'
p144
sg66
(dp145
S'default'
p146
S'None'
p147
sS'global custom_json'
p148
S'<function custom_json>'
p149
sS'global json'
p150
S'<function json>'
p151
sS'data'
p152
S'{\'delete_record\': <pydal.helpers.classes.RecordDeleter object>, \'id\': 4L, \'image_str\': \'\', \'picture\': \'my_images.picture.a7de9eb74ecd8eb6.626f62612e6a7067.jpg\', \'picture_file\': \'\\xff\\xd8\\xff\\xe0\\x00\\x10JFIF\\x00\\x01\\x01\\x00\\x00\\x01\\x00\\x01\\x00\\x00\\xff\\xfe\\x00 Compressed by jpeg-recom...\\x8a\\xf2W\\xef\\x99\\xd8\\xd4\\x8dK\\xf2kCw\\xd0\\x9d\\x1a\\xd1\\xad\\x16\\x99e\\x96Y\\xa8\\xd4j5\\x17\\xf1\\x14QEp+\\xe2"\\x86\\x86\\xbee\\x16\\x8b_\\x91\\xbf\\xfaK\\xff\\xd9\', \'post_id\': 42L, \'update_record\': <pydal.helpers.classes.RecordUpdater object>}'
p153
sS'indent'
p154
S'None'
p155
ssg72
I697
sg73
(dp156
I692
S'        return self.stream(stream, chunk_size=chunk_size, request=request)'
p157
sI693
S''
sI694
S'    def json(self, data, default=None, indent=None):'
p158
sI695
S"        if 'Content-Type' not in self.headers:"
p159
sI696
S"            self.headers['Content-Type'] = 'application/json'"
p160
sI697
S'        return json(data, default=default or custom_json, indent=indent)'
p161
sI698
S''
sI699
S'    def xmlrpc(self, request, methods):'
p162
sI700
S'        from gluon.xmlrpc import handler'
p163
sI701
S'        """'
p164
ssg85
S'(self=<Storage {\'body\': <cStringIO.StringO object at 0...y, session_data)>, \'view\': \'api/get_image.html\'}>, data={\'delete_record\': <pydal.helpers.classes.RecordDeleter object>, \'id\': 4L, \'image_str\': \'\', \'picture\': \'my_images.picture.a7de9eb74ecd8eb6.626f62612e6a7067.jpg\', \'picture_file\': \'\\xff\\xd8\\xff\\xe0\\x00\\x10JFIF\\x00\\x01\\x01\\x00\\x00\\x01\\x00\\x01\\x00\\x00\\xff\\xfe\\x00 Compressed by jpeg-recom...\\x8a\\xf2W\\xef\\x99\\xd8\\xd4\\x8dK\\xf2kCw\\xd0\\x9d\\x1a\\xd1\\xad\\x16\\x99e\\x96Y\\xa8\\xd4j5\\x17\\xf1\\x14QEp+\\xe2"\\x86\\x86\\xbee\\x16\\x8b_\\x91\\xbf\\xfaK\\xff\\xd9\', \'post_id\': 42L, \'update_record\': <pydal.helpers.classes.RecordUpdater object>}, default=None, indent=None)'
p165
sg87
S'json'
p166
sa(dp167
g64
S'/home/wellford/ComCooks/web2py/gluon/serializers.py'
p168
sg66
(dp169
S'global json_parser'
p170
S"<module 'json' from '/usr/lib/python2.7/json/__init__.pyc'>"
p171
sS'indent'
p172
S'None'
p173
sS'default'
p174
S'<function custom_json>'
p175
sS'value'
p176
S'{\'delete_record\': <pydal.helpers.classes.RecordDeleter object>, \'id\': 4L, \'image_str\': \'\', \'picture\': \'my_images.picture.a7de9eb74ecd8eb6.626f62612e6a7067.jpg\', \'picture_file\': \'\\xff\\xd8\\xff\\xe0\\x00\\x10JFIF\\x00\\x01\\x01\\x00\\x00\\x01\\x00\\x01\\x00\\x00\\xff\\xfe\\x00 Compressed by jpeg-recom...\\x8a\\xf2W\\xef\\x99\\xd8\\xd4\\x8dK\\xf2kCw\\xd0\\x9d\\x1a\\xd1\\xad\\x16\\x99e\\x96Y\\xa8\\xd4j5\\x17\\xf1\\x14QEp+\\xe2"\\x86\\x86\\xbee\\x16\\x8b_\\x91\\xbf\\xfaK\\xff\\xd9\', \'post_id\': 42L, \'update_record\': <pydal.helpers.classes.RecordUpdater object>}'
p177
sS'json_parser.dumps'
p178
S'<function dumps>'
p179
sS'sort_keys'
p180
S'False'
p181
ssg72
I123
sg73
(dp182
I118
S"def xml(value, encoding='UTF-8', key='document', quote=True):"
p183
sI119
S'    return (\'<?xml version="1.0" encoding="%s"?>\' % encoding) + str(xml_rec(value, key, quote))'
p184
sI120
S''
sI121
S''
sI122
S'def json(value, default=custom_json, indent=None, sort_keys=False):'
p185
sI123
S'    value = json_parser.dumps(value, default=default, sort_keys=sort_keys, indent=indent)'
p186
sI124
S'    # replace JavaScript incompatible spacing'
p187
sI125
S'    # http://timelessrepo.com/json-isnt-a-javascript-subset'
p188
sI126
S'    # PY3 FIXME'
p189
sI127
S"    # return value.replace(ur'\\u2028', '\\\\u2028').replace(ur'\\2029', '\\\\u2029')"
p190
ssg85
S'(value={\'delete_record\': <pydal.helpers.classes.RecordDeleter object>, \'id\': 4L, \'image_str\': \'\', \'picture\': \'my_images.picture.a7de9eb74ecd8eb6.626f62612e6a7067.jpg\', \'picture_file\': \'\\xff\\xd8\\xff\\xe0\\x00\\x10JFIF\\x00\\x01\\x01\\x00\\x00\\x01\\x00\\x01\\x00\\x00\\xff\\xfe\\x00 Compressed by jpeg-recom...\\x8a\\xf2W\\xef\\x99\\xd8\\xd4\\x8dK\\xf2kCw\\xd0\\x9d\\x1a\\xd1\\xad\\x16\\x99e\\x96Y\\xa8\\xd4j5\\x17\\xf1\\x14QEp+\\xe2"\\x86\\x86\\xbee\\x16\\x8b_\\x91\\xbf\\xfaK\\xff\\xd9\', \'post_id\': 42L, \'update_record\': <pydal.helpers.classes.RecordUpdater object>}, default=<function custom_json>, indent=None, sort_keys=False)'
p191
sg87
g166
sa(dp192
g64
S'/usr/lib/python2.7/json/__init__.py'
p193
sg66
(dp194
S'obj'
p195
S'{\'delete_record\': <pydal.helpers.classes.RecordDeleter object>, \'id\': 4L, \'image_str\': \'\', \'picture\': \'my_images.picture.a7de9eb74ecd8eb6.626f62612e6a7067.jpg\', \'picture_file\': \'\\xff\\xd8\\xff\\xe0\\x00\\x10JFIF\\x00\\x01\\x01\\x00\\x00\\x01\\x00\\x01\\x00\\x00\\xff\\xfe\\x00 Compressed by jpeg-recom...\\x8a\\xf2W\\xef\\x99\\xd8\\xd4\\x8dK\\xf2kCw\\xd0\\x9d\\x1a\\xd1\\xad\\x16\\x99e\\x96Y\\xa8\\xd4j5\\x17\\xf1\\x14QEp+\\xe2"\\x86\\x86\\xbee\\x16\\x8b_\\x91\\xbf\\xfaK\\xff\\xd9\', \'post_id\': 42L, \'update_record\': <pydal.helpers.classes.RecordUpdater object>}'
p196
sS'sort_keys'
p197
g181
sS'kw'
p198
g19
sS').encode'
p199
g107
ssg72
I251
sg73
(dp200
I246
S'        cls = JSONEncoder'
p201
sI247
S'    return cls('
p202
sI248
S'        skipkeys=skipkeys, ensure_ascii=ensure_ascii,'
p203
sI249
S'        check_circular=check_circular, allow_nan=allow_nan, indent=indent,'
p204
sI250
S'        separators=separators, encoding=encoding, default=default,'
p205
sI251
S'        sort_keys=sort_keys, **kw).encode(obj)'
p206
sI252
S''
sI253
S''
sI254
S'_default_decoder = JSONDecoder(encoding=None, object_hook=None,'
p207
sI255
S'                               object_pairs_hook=None)'
p208
ssg85
S'(obj={\'delete_record\': <pydal.helpers.classes.RecordDeleter object>, \'id\': 4L, \'image_str\': \'\', \'picture\': \'my_images.picture.a7de9eb74ecd8eb6.626f62612e6a7067.jpg\', \'picture_file\': \'\\xff\\xd8\\xff\\xe0\\x00\\x10JFIF\\x00\\x01\\x01\\x00\\x00\\x01\\x00\\x01\\x00\\x00\\xff\\xfe\\x00 Compressed by jpeg-recom...\\x8a\\xf2W\\xef\\x99\\xd8\\xd4\\x8dK\\xf2kCw\\xd0\\x9d\\x1a\\xd1\\xad\\x16\\x99e\\x96Y\\xa8\\xd4j5\\x17\\xf1\\x14QEp+\\xe2"\\x86\\x86\\xbee\\x16\\x8b_\\x91\\xbf\\xfaK\\xff\\xd9\', \'post_id\': 42L, \'update_record\': <pydal.helpers.classes.RecordUpdater object>}, skipkeys=False, ensure_ascii=True, check_circular=True, allow_nan=True, cls=<class \'json.encoder.JSONEncoder\'>, indent=None, separators=None, encoding=\'utf-8\', default=<function custom_json>, sort_keys=False, **kw={})'
p209
sg87
S'dumps'
p210
sa(dp211
g64
S'/usr/lib/python2.7/json/encoder.py'
p212
sg66
(dp213
S'self'
p214
S'<json.encoder.JSONEncoder object>'
p215
sS'o'
S'{\'delete_record\': <pydal.helpers.classes.RecordDeleter object>, \'id\': 4L, \'image_str\': \'\', \'picture\': \'my_images.picture.a7de9eb74ecd8eb6.626f62612e6a7067.jpg\', \'picture_file\': \'\\xff\\xd8\\xff\\xe0\\x00\\x10JFIF\\x00\\x01\\x01\\x00\\x00\\x01\\x00\\x01\\x00\\x00\\xff\\xfe\\x00 Compressed by jpeg-recom...\\x8a\\xf2W\\xef\\x99\\xd8\\xd4\\x8dK\\xf2kCw\\xd0\\x9d\\x1a\\xd1\\xad\\x16\\x99e\\x96Y\\xa8\\xd4j5\\x17\\xf1\\x14QEp+\\xe2"\\x86\\x86\\xbee\\x16\\x8b_\\x91\\xbf\\xfaK\\xff\\xd9\', \'post_id\': 42L, \'update_record\': <pydal.helpers.classes.RecordUpdater object>}'
p216
sS'self.iterencode'
p217
S'<bound method JSONEncoder.iterencode of <json.encoder.JSONEncoder object>>'
p218
sS'_one_shot'
p219
g107
sS'chunks'
p220
g107
sS'builtinTrue'
p221
S'True'
p222
ssg72
I207
sg73
(dp223
I202
S'            else:'
p224
sI203
S'                return encode_basestring(o)'
p225
sI204
S"        # This doesn't pass the iterator directly to ''.join() because the"
p226
sI205
S"        # exceptions aren't as detailed.  The list call should be roughly"
p227
sI206
S"        # equivalent to the PySequence_Fast that ''.join() would do."
p228
sI207
S'        chunks = self.iterencode(o, _one_shot=True)'
p229
sI208
S'        if not isinstance(chunks, (list, tuple)):'
p230
sI209
S'            chunks = list(chunks)'
p231
sI210
S"        return ''.join(chunks)"
p232
sI211
S''
ssg85
S'(self=<json.encoder.JSONEncoder object>, o={\'delete_record\': <pydal.helpers.classes.RecordDeleter object>, \'id\': 4L, \'image_str\': \'\', \'picture\': \'my_images.picture.a7de9eb74ecd8eb6.626f62612e6a7067.jpg\', \'picture_file\': \'\\xff\\xd8\\xff\\xe0\\x00\\x10JFIF\\x00\\x01\\x01\\x00\\x00\\x01\\x00\\x01\\x00\\x00\\xff\\xfe\\x00 Compressed by jpeg-recom...\\x8a\\xf2W\\xef\\x99\\xd8\\xd4\\x8dK\\xf2kCw\\xd0\\x9d\\x1a\\xd1\\xad\\x16\\x99e\\x96Y\\xa8\\xd4j5\\x17\\xf1\\x14QEp+\\xe2"\\x86\\x86\\xbee\\x16\\x8b_\\x91\\xbf\\xfaK\\xff\\xd9\', \'post_id\': 42L, \'update_record\': <pydal.helpers.classes.RecordUpdater object>})'
p233
sg87
S'encode'
p234
sa(dp235
g64
S'/usr/lib/python2.7/json/encoder.py'
p236
sg66
(dp237
S'_iterencode'
p238
S'<_json.Encoder object>'
p239
sS'o'
S'{\'delete_record\': <pydal.helpers.classes.RecordDeleter object>, \'id\': 4L, \'image_str\': \'\', \'picture\': \'my_images.picture.a7de9eb74ecd8eb6.626f62612e6a7067.jpg\', \'picture_file\': \'\\xff\\xd8\\xff\\xe0\\x00\\x10JFIF\\x00\\x01\\x01\\x00\\x00\\x01\\x00\\x01\\x00\\x00\\xff\\xfe\\x00 Compressed by jpeg-recom...\\x8a\\xf2W\\xef\\x99\\xd8\\xd4\\x8dK\\xf2kCw\\xd0\\x9d\\x1a\\xd1\\xad\\x16\\x99e\\x96Y\\xa8\\xd4j5\\x17\\xf1\\x14QEp+\\xe2"\\x86\\x86\\xbee\\x16\\x8b_\\x91\\xbf\\xfaK\\xff\\xd9\', \'post_id\': 42L, \'update_record\': <pydal.helpers.classes.RecordUpdater object>}'
p240
ssg72
I270
sg73
(dp241
I265
S'        else:'
p242
sI266
S'            _iterencode = _make_iterencode('
p243
sI267
S'                markers, self.default, _encoder, self.indent, floatstr,'
p244
sI268
S'                self.key_separator, self.item_separator, self.sort_keys,'
p245
sI269
S'                self.skipkeys, _one_shot)'
p246
sI270
S'        return _iterencode(o, 0)'
p247
sI271
S''
sI272
S'def _make_iterencode(markers, _default, _encoder, _indent, _floatstr,'
p248
sI273
S'        _key_separator, _item_separator, _sort_keys, _skipkeys, _one_shot,'
p249
sI274
S'        ## HACK: hand-optimized bytecode; turn globals into locals'
p250
ssg85
S'(self=<json.encoder.JSONEncoder object>, o={\'delete_record\': <pydal.helpers.classes.RecordDeleter object>, \'id\': 4L, \'image_str\': \'\', \'picture\': \'my_images.picture.a7de9eb74ecd8eb6.626f62612e6a7067.jpg\', \'picture_file\': \'\\xff\\xd8\\xff\\xe0\\x00\\x10JFIF\\x00\\x01\\x01\\x00\\x00\\x01\\x00\\x01\\x00\\x00\\xff\\xfe\\x00 Compressed by jpeg-recom...\\x8a\\xf2W\\xef\\x99\\xd8\\xd4\\x8dK\\xf2kCw\\xd0\\x9d\\x1a\\xd1\\xad\\x16\\x99e\\x96Y\\xa8\\xd4j5\\x17\\xf1\\x14QEp+\\xe2"\\x86\\x86\\xbee\\x16\\x8b_\\x91\\xbf\\xfaK\\xff\\xd9\', \'post_id\': 42L, \'update_record\': <pydal.helpers.classes.RecordUpdater object>}, _one_shot=True)'
p251
sg87
S'iterencode'
p252
sa(dp253
g64
S'/home/wellford/ComCooks/web2py/gluon/serializers.py'
p254
sg66
(dp255
S'builtinrepr'
p256
S'<built-in function repr>'
p257
sS'builtinTypeError'
p258
S"<type 'exceptions.TypeError'>"
p259
sS'o'
S'<pydal.helpers.classes.RecordUpdater object>'
p260
ssg72
I99
sg73
(dp261
I96
S"    elif hasattr(o, 'as_dict') and callable(o.as_dict):"
p262
sI97
S'        return o.as_dict()'
p263
sI98
S'    else:'
p264
sI99
S'        raise TypeError(repr(o) + " is not JSON serializable")'
p265
sI100
S''
sI101
S''
sI102
S'def xml_rec(value, key, quote=True):'
p266
sI103
S"    if hasattr(value, 'custom_xml') and callable(value.custom_xml):"
p267
sI94
S"    elif hasattr(o, 'as_list') and callable(o.as_list):"
p268
sI95
S'        return o.as_list()'
p269
ssg85
S'(o=<pydal.helpers.classes.RecordUpdater object>)'
p270
sg87
S'custom_json'
p271
sasS'pyver'
p272
S'Python 2.7.12: /usr/bin/python (prefix: /usr)'
p273
sS'session'
p274
g59
(S's\x0b\n\x00\x00<div><table><tr><td style="font-weight:bold;vertical-align:top;">auth</td><td style="vertical-align:top;">:</td><td><div><table><tr><td style="font-weight:bold;vertical-align:top;">expiration</td><td style="vertical-align:top;">:</td><td><div>3600</div></td></tr><tr><td style="font-weight:bold;vertical-align:top;">hmac_key</td><td style="vertical-align:top;">:</td><td><div>965d4078-bd4b-4552-8ee1-aaa8cd02b14d</div></td></tr><tr><td style="font-weight:bold;vertical-align:top;">last_visit</td><td style="vertical-align:top;">:</td><td><div>datetime.datetime(2018, 12, 9, 17, 45, 48, 392305)</div></td></tr><tr><td style="font-weight:bold;vertical-align:top;">remember_me</td><td style="vertical-align:top;">:</td><td><div>False</div></td></tr><tr><td style="font-weight:bold;vertical-align:top;">user</td><td style="vertical-align:top;">:</td><td><div><table><tr><td style="font-weight:bold;vertical-align:top;">email</td><td style="vertical-align:top;">:</td><td><div>well_fun@yahoo.com</div></td></tr><tr><td style="font-weight:bold;vertical-align:top;">first_name</td><td style="vertical-align:top;">:</td><td><div>Wellford</div></td></tr><tr><td style="font-weight:bold;vertical-align:top;">id</td><td style="vertical-align:top;">:</td><td><div>8L</div></td></tr><tr><td style="font-weight:bold;vertical-align:top;">last_name</td><td style="vertical-align:top;">:</td><td><div>Chan</div></td></tr><tr><td style="font-weight:bold;vertical-align:top;">registration_id</td><td style="vertical-align:top;">:</td><td><div></div></td></tr><tr><td style="font-weight:bold;vertical-align:top;">registration_key</td><td style="vertical-align:top;">:</td><td><div></div></td></tr><tr><td style="font-weight:bold;vertical-align:top;">reset_password_key</td><td style="vertical-align:top;">:</td><td><div></div></td></tr></table></div></td></tr><tr><td style="font-weight:bold;vertical-align:top;">user_groups</td><td style="vertical-align:top;">:</td><td><div><table><tr><td style="font-weight:bold;vertical-align:top;">9</td><td style="vertical-align:top;">:</td><td><div>user_8</div></td></tr></table></div></td></tr></table></div></td></tr><tr><td style="font-weight:bold;vertical-align:top;">flash</td><td style="vertical-align:top;">:</td><td><div>None</div></td></tr><tr><td style="font-weight:bold;vertical-align:top;">last_orderby</td><td style="vertical-align:top;">:</td><td><div>None</div></td></tr><tr><td style="font-weight:bold;vertical-align:top;">last_query</td><td style="vertical-align:top;">:</td><td><div>db.my_images.id&gt;0</div></td></tr></table></div>'
tRp275
sS'etype'
p276
S"<type 'exceptions.TypeError'>"
p277
sS'date'
p278
S'Sun Dec  9 17:47:01 2018'
p279
sS'response'
p280
g59
(S's\x80!\x00\x00<div><table><tr><td style="font-weight:bold;vertical-align:top;">body</td><td style="vertical-align:top;">:</td><td><div>&lt;cStringIO.StringO object at 0x7fbd309535a8&gt;</div></td></tr><tr><td style="font-weight:bold;vertical-align:top;">cookies</td><td style="vertical-align:top;">:</td><td><div><table><tr><td style="font-weight:bold;vertical-align:top;">session_id_comcooks</td><td style="vertical-align:top;">:</td><td><div>27:ee85a68c-d897-4c5a-a625-321746956222<table><tr><td style="font-weight:bold;vertical-align:top;">comment</td><td style="vertical-align:top;">:</td><td><div></div></td></tr><tr><td style="font-weight:bold;vertical-align:top;">domain</td><td style="vertical-align:top;">:</td><td><div></div></td></tr><tr><td style="font-weight:bold;vertical-align:top;">expires</td><td style="vertical-align:top;">:</td><td><div></div></td></tr><tr><td style="font-weight:bold;vertical-align:top;">httponly</td><td style="vertical-align:top;">:</td><td><div></div></td></tr><tr><td style="font-weight:bold;vertical-align:top;">max-age</td><td style="vertical-align:top;">:</td><td><div></div></td></tr><tr><td style="font-weight:bold;vertical-align:top;">path</td><td style="vertical-align:top;">:</td><td><div>/</div></td></tr><tr><td style="font-weight:bold;vertical-align:top;">samesite</td><td style="vertical-align:top;">:</td><td><div></div></td></tr><tr><td style="font-weight:bold;vertical-align:top;">secure</td><td style="vertical-align:top;">:</td><td><div></div></td></tr><tr><td style="font-weight:bold;vertical-align:top;">version</td><td style="vertical-align:top;">:</td><td><div></div></td></tr></table></div></td></tr></table></div></td></tr><tr><td style="font-weight:bold;vertical-align:top;">delimiters</td><td style="vertical-align:top;">:</td><td><div><table><tr><td><div>{{</div></td></tr><tr><td><div>}}</div></td></tr></table></div></td></tr><tr><td style="font-weight:bold;vertical-align:top;">files</td><td style="vertical-align:top;">:</td><td><div><table></table></div></td></tr><tr><td style="font-weight:bold;vertical-align:top;">flash</td><td style="vertical-align:top;">:</td><td><div></div></td></tr><tr><td style="font-weight:bold;vertical-align:top;">form_label_separator</td><td style="vertical-align:top;">:</td><td><div></div></td></tr><tr><td style="font-weight:bold;vertical-align:top;">formstyle</td><td style="vertical-align:top;">:</td><td><div>bootstrap3_inline</div></td></tr><tr><td style="font-weight:bold;vertical-align:top;">generic_patterns</td><td style="vertical-align:top;">:</td><td><div><table><tr><td><div>*</div></td></tr></table></div></td></tr><tr><td style="font-weight:bold;vertical-align:top;">google_analytics_id</td><td style="vertical-align:top;">:</td><td><div>None</div></td></tr><tr><td style="font-weight:bold;vertical-align:top;">headers</td><td style="vertical-align:top;">:</td><td><div><table><tr><td style="font-weight:bold;vertical-align:top;">Content-Type</td><td style="vertical-align:top;">:</td><td><div>application/json</div></td></tr><tr><td style="font-weight:bold;vertical-align:top;">X-Powered-By</td><td style="vertical-align:top;">:</td><td><div>web2py</div></td></tr></table></div></td></tr><tr><td style="font-weight:bold;vertical-align:top;">logo</td><td style="vertical-align:top;">:</td><td><div><a class="navbar-brand" href="http://www.web2py.com/" id="web2py-logo"><b>web<span>2</span>py</b>&trade;&nbsp;</a></div></td></tr><tr><td style="font-weight:bold;vertical-align:top;">menu</td><td style="vertical-align:top;">:</td><td><div><table><tr><td><div><table><tr><td><div>Home</div></td></tr><tr><td><div>False</div></td></tr><tr><td><div>/ComCooks/default/index</div></td></tr><tr><td><div><table></table></div></td></tr></table></div></td></tr><tr><td><div><table><tr><td><div>My Sites</div></td></tr><tr><td><div>False</div></td></tr><tr><td><div>/admin/default/site</div></td></tr></table></div></td></tr><tr><td><div><table><tr><td><div>Sample Menu 1</div></td></tr><tr><td><div>False</div></td></tr><tr><td><div>#</div></td></tr><tr><td><div><table><tr><td><div><table><tr><td><div>Entry1</div></td></tr><tr><td><div>False</div></td></tr><tr><td><div>/ComCooks/default/entry1</div></td></tr></table></div></td></tr><tr><td><div><table><tr><td><div>Entry2</div></td></tr><tr><td><div>False</div></td></tr><tr><td><div>/ComCooks/default/entry2</div></td></tr></table></div></td></tr></table></div></td></tr></table></div></td></tr><tr><td><div><table><tr><td><div>Sample Menu 2</div></td></tr><tr><td><div>False</div></td></tr><tr><td><div>/ComCooks/default/index</div></td></tr></table></div></td></tr></table></div></td></tr><tr><td style="font-weight:bold;vertical-align:top;">meta</td><td style="vertical-align:top;">:</td><td><div><table><tr><td style="font-weight:bold;vertical-align:top;">author</td><td style="vertical-align:top;">:</td><td><div>Your Name &lt;you@example.com&gt;</div></td></tr><tr><td style="font-weight:bold;vertical-align:top;">description</td><td style="vertical-align:top;">:</td><td><div>a cool new app</div></td></tr><tr><td style="font-weight:bold;vertical-align:top;">generator</td><td style="vertical-align:top;">:</td><td><div>Web2py Web Framework</div></td></tr><tr><td style="font-weight:bold;vertical-align:top;">keywords</td><td style="vertical-align:top;">:</td><td><div><table><tr><td><div>web2py</div></td></tr><tr><td><div>python</div></td></tr><tr><td><div>framework</div></td></tr></table></div></td></tr></table></div></td></tr><tr><td style="font-weight:bold;vertical-align:top;">models_to_run</td><td style="vertical-align:top;">:</td><td><div><table><tr><td><div>^\\w+\\.py$</div></td></tr><tr><td><div>^api/\\w+\\.py$</div></td></tr><tr><td><div>^api/get_image/\\w+\\.py$</div></td></tr></table></div></td></tr><tr><td style="font-weight:bold;vertical-align:top;">postprocessing</td><td style="vertical-align:top;">:</td><td><div><table></table></div></td></tr><tr><td style="font-weight:bold;vertical-align:top;">session_client</td><td style="vertical-align:top;">:</td><td><div>127.0.0.1</div></td></tr><tr><td style="font-weight:bold;vertical-align:top;">session_cookie_compression_level</td><td style="vertical-align:top;">:</td><td><div>None</div></td></tr><tr><td style="font-weight:bold;vertical-align:top;">session_cookie_expires</td><td style="vertical-align:top;">:</td><td><div>None</div></td></tr><tr><td style="font-weight:bold;vertical-align:top;">session_data_name</td><td style="vertical-align:top;">:</td><td><div>session_data_comcooks</div></td></tr><tr><td style="font-weight:bold;vertical-align:top;">session_db_record_id</td><td style="vertical-align:top;">:</td><td><div>27L</div></td></tr><tr><td style="font-weight:bold;vertical-align:top;">session_db_table</td><td style="vertical-align:top;">:</td><td><div>&lt;Table web2py_session_ComCooks (id, locked, client_ip, created_datetime, modified_datetime, unique_key, session_data)&gt;</div></td></tr><tr><td style="font-weight:bold;vertical-align:top;">session_db_unique_key</td><td style="vertical-align:top;">:</td><td><div>ee85a68c-d897-4c5a-a625-321746956222</div></td></tr><tr><td style="font-weight:bold;vertical-align:top;">session_hash</td><td style="vertical-align:top;">:</td><td><div>32d91feb7111700985a6c6c52263279b</div></td></tr><tr><td style="font-weight:bold;vertical-align:top;">session_id</td><td style="vertical-align:top;">:</td><td><div>27:ee85a68c-d897-4c5a-a625-321746956222</div></td></tr><tr><td style="font-weight:bold;vertical-align:top;">session_id_name</td><td style="vertical-align:top;">:</td><td><div>session_id_comcooks</div></td></tr><tr><td style="font-weight:bold;vertical-align:top;">session_masterapp</td><td style="vertical-align:top;">:</td><td><div>ComCooks</div></td></tr><tr><td style="font-weight:bold;vertical-align:top;">session_new</td><td style="vertical-align:top;">:</td><td><div>False</div></td></tr><tr><td style="font-weight:bold;vertical-align:top;">session_storage_type</td><td style="vertical-align:top;">:</td><td><div>db</div></td></tr><tr><td style="font-weight:bold;vertical-align:top;">status</td><td style="vertical-align:top;">:</td><td><div>200</div></td></tr><tr><td style="font-weight:bold;vertical-align:top;">subtitle</td><td style="vertical-align:top;">:</td><td><div></div></td></tr><tr><td style="font-weight:bold;vertical-align:top;">title</td><td style="vertical-align:top;">:</td><td><div>Comcooks</div></td></tr><tr><td style="font-weight:bold;vertical-align:top;">view</td><td style="vertical-align:top;">:</td><td><div>api/get_image.html</div></td></tr></table></div>'
tRp281
sS'locals'
p282
(dp283
S'o'
S'<pydal.helpers.classes.RecordUpdater object>'
p284
sssS'traceback'
p285
S'Traceback (most recent call last):\n  File "/home/wellford/ComCooks/web2py/gluon/restricted.py", line 219, in restricted\n    exec(ccode, environment)\n  File "/home/wellford/ComCooks/web2py/applications/ComCooks/controllers/api.py", line 194, in <module>\n  File "/home/wellford/ComCooks/web2py/gluon/globals.py", line 421, in <lambda>\n    self._caller = lambda f: f()\n  File "/home/wellford/ComCooks/web2py/applications/ComCooks/controllers/api.py", line 179, in get_image\n    return response.json(dict(r))\n  File "/home/wellford/ComCooks/web2py/gluon/globals.py", line 697, in json\n    return json(data, default=default or custom_json, indent=indent)\n  File "/home/wellford/ComCooks/web2py/gluon/serializers.py", line 123, in json\n    value = json_parser.dumps(value, default=default, sort_keys=sort_keys, indent=indent)\n  File "/usr/lib/python2.7/json/__init__.py", line 251, in dumps\n    sort_keys=sort_keys, **kw).encode(obj)\n  File "/usr/lib/python2.7/json/encoder.py", line 207, in encode\n    chunks = self.iterencode(o, _one_shot=True)\n  File "/usr/lib/python2.7/json/encoder.py", line 270, in iterencode\n    return _iterencode(o, 0)\n  File "/home/wellford/ComCooks/web2py/gluon/serializers.py", line 99, in custom_json\n    raise TypeError(repr(o) + " is not JSON serializable")\nTypeError: <pydal.helpers.classes.RecordUpdater object at 0x7fbd30177810> is not JSON serializable\n'
p286
s.